; Function Attrs: mustprogress nounwind uwtable
define hidden void @_ZN14ShenandoahHeap24try_inject_alloc_failureEv(ptr noundef nonnull align 8 dereferenceable(2657) %0) local_unnamed_addr #1 align 2 {
  %2 = load i8, ptr @ShenandoahAllocFailureALot, align 1
  %3 = trunc i8 %2 to i1
  br i1 %3, label %4, label %20

4:                                                ; preds = %1
  %5 = getelementptr inbounds i8, ptr %0, i64 1552
  %6 = load volatile i8, ptr %5, align 8
  tail call void asm sideeffect "", "~{memory},~{dirflag},~{fpsr},~{flags}"() #26, !srcloc !14
  %7 = icmp eq i8 %6, 1
  br i1 %7, label %20, label %8

8:                                                ; preds = %4
  %9 = tail call noundef i32 @_ZN2os6randomEv() #26
  %10 = srem i32 %9, 1000
  %11 = icmp sgt i32 %10, 950
  br i1 %11, label %12, label %20

12:                                               ; preds = %8
  %13 = getelementptr inbounds i8, ptr %0, i64 2592
  %14 = tail call i8 asm sideeffect "xchgb ($2),$0", "=q,0,r,~{memory},~{dirflag},~{fpsr},~{flags}"(i8 1, ptr nonnull %13) #26, !srcloc !16
  tail call void @_ZN2os17naked_short_sleepEl(i64 noundef 1) #26
  %15 = load volatile i8, ptr %5, align 8
  tail call void asm sideeffect "", "~{memory},~{dirflag},~{fpsr},~{flags}"() #26, !srcloc !14
  %16 = icmp eq i8 %15, 1
  br i1 %16, label %17, label %20

17:                                               ; preds = %12
  %18 = load volatile ptr, ptr getelementptr inbounds (i8, ptr @_ZN16LogTagSetMappingILN6LogTag4typeE49ELS1_0ELS1_0ELS1_0ELS1_0ELS1_0EE7_tagsetE, i64 64), align 8
  %.not = icmp eq ptr %18, null
  br i1 %.not, label %20, label %19

19:                                               ; preds = %17
  tail call void (ptr, ...) @_ZN7LogImplILN6LogTag4typeE49ELS1_0ELS1_0ELS1_0ELS1_0ELS1_0EE5writeILN8LogLevel4typeE3EEEvPKcz(ptr noundef nonnull @.str.77)
  br label %20

20:                                               ; preds = %12, %17, %19, %8, %4, %1
  ret void
}